target datalayout = "e-m:e-p270:32:32-p271:32:32-p272:64:64-i64:64-i128:128-f80:128-n8:16:32:64-S128"
target triple = "x86_64-pc-linux-gnu"

%class.btVector3 = type { [4 x float] }
%class.btAlignedObjectArray.2 = type <{ [4 x i8], i32, i32, [4 x i8], ptr, i8, [7 x i8] }>
%class.btDeformableBodySolver = type <{ %class.btSoftBodySolver.base, i32, %class.btAlignedObjectArray.2, %class.btAlignedObjectArray.2, %class.btAlignedObjectArray.2, %class.btAlignedObjectArray.2, %class.btAlignedObjectArray.4, %class.btAlignedObjectArray.2, float, [4 x i8], %class.btConjugateGradient, %class.btConjugateResidual, i8, [3 x i8], i32, float, i8, i8, [2 x i8], ptr, i8, [7 x i8] }>
%class.btSoftBodySolver.base = type <{ ptr, i32, i32, float }>
%class.btAlignedObjectArray.4 = type <{ [4 x i8], i32, i32, [4 x i8], ptr, i8, [7 x i8] }>
%class.btConjugateGradient = type { %class.btKrylovSolver, %class.btAlignedObjectArray.2, %class.btAlignedObjectArray.2, %class.btAlignedObjectArray.2, %class.btAlignedObjectArray.2 }
%class.btKrylovSolver = type { ptr, i32, float }
%class.btConjugateResidual = type <{ %class.btKrylovSolver, %class.btAlignedObjectArray.2, %class.btAlignedObjectArray.2, %class.btAlignedObjectArray.2, %class.btAlignedObjectArray.2, %class.btAlignedObjectArray.2, %class.btAlignedObjectArray.2, float, [4 x i8] }>

; Function Attrs: inlinehint mustprogress nounwind uwtable
define linkonce_odr dso_local void @_ZN9btVector3C2ERKfS1_S1_(ptr noundef nonnull align 4 dereferenceable(16) %0, ptr noundef nonnull align 4 dereferenceable(4) %1, ptr noundef nonnull align 4 dereferenceable(4) %2, ptr noundef nonnull align 4 dereferenceable(4) %3) unnamed_addr #6 comdat align 2 {
  %5 = alloca ptr, align 8
  %6 = alloca ptr, align 8
  %7 = alloca ptr, align 8
  %8 = alloca ptr, align 8
  store ptr %0, ptr %5, align 8, !tbaa !14
  store ptr %1, ptr %6, align 8, !tbaa !16
  store ptr %2, ptr %7, align 8, !tbaa !16
  store ptr %3, ptr %8, align 8, !tbaa !16
  %9 = load ptr, ptr %5, align 8
  %10 = load ptr, ptr %6, align 8, !tbaa !16
  %11 = load float, ptr %10, align 4, !tbaa !12
  %12 = getelementptr inbounds nuw %class.btVector3, ptr %9, i32 0, i32 0
  %13 = getelementptr inbounds [4 x float], ptr %12, i64 0, i64 0
  store float %11, ptr %13, align 4, !tbaa !12
  %14 = load ptr, ptr %7, align 8, !tbaa !16
  %15 = load float, ptr %14, align 4, !tbaa !12
  %16 = getelementptr inbounds nuw %class.btVector3, ptr %9, i32 0, i32 0
  %17 = getelementptr inbounds [4 x float], ptr %16, i64 0, i64 1
  store float %15, ptr %17, align 4, !tbaa !12
  %18 = load ptr, ptr %8, align 8, !tbaa !16
  %19 = load float, ptr %18, align 4, !tbaa !12
  %20 = getelementptr inbounds nuw %class.btVector3, ptr %9, i32 0, i32 0
  %21 = getelementptr inbounds [4 x float], ptr %20, i64 0, i64 2
  store float %19, ptr %21, align 4, !tbaa !12
  %22 = getelementptr inbounds nuw %class.btVector3, ptr %9, i32 0, i32 0
  %23 = getelementptr inbounds [4 x float], ptr %22, i64 0, i64 3
  store float 0.000000e+00, ptr %23, align 4, !tbaa !12
  ret void
}

; Function Attrs: inlinehint mustprogress uwtable
define linkonce_odr dso_local { <2 x float>, <2 x float> } @_ZmlRK9btVector3RKf(ptr noundef nonnull align 4 dereferenceable(16) %0, ptr noundef nonnull align 4 dereferenceable(4) %1) #8 comdat {
  %3 = alloca %class.btVector3, align 4
  %4 = alloca ptr, align 8
  %5 = alloca ptr, align 8
  %6 = alloca float, align 4
  %7 = alloca float, align 4
  %8 = alloca float, align 4
  store ptr %0, ptr %4, align 8, !tbaa !14
  store ptr %1, ptr %5, align 8, !tbaa !16
  call void @llvm.lifetime.start.p0(i64 4, ptr %6) #4
  %9 = load ptr, ptr %4, align 8, !tbaa !14
  %10 = getelementptr inbounds nuw %class.btVector3, ptr %9, i32 0, i32 0
  %11 = getelementptr inbounds [4 x float], ptr %10, i64 0, i64 0
  %12 = load float, ptr %11, align 4, !tbaa !12
  %13 = load ptr, ptr %5, align 8, !tbaa !16
  %14 = load float, ptr %13, align 4, !tbaa !12
  %15 = fmul float %12, %14
  store float %15, ptr %6, align 4, !tbaa !12
  call void @llvm.lifetime.start.p0(i64 4, ptr %7) #4
  %16 = load ptr, ptr %4, align 8, !tbaa !14
  %17 = getelementptr inbounds nuw %class.btVector3, ptr %16, i32 0, i32 0
  %18 = getelementptr inbounds [4 x float], ptr %17, i64 0, i64 1
  %19 = load float, ptr %18, align 4, !tbaa !12
  %20 = load ptr, ptr %5, align 8, !tbaa !16
  %21 = load float, ptr %20, align 4, !tbaa !12
  %22 = fmul float %19, %21
  store float %22, ptr %7, align 4, !tbaa !12
  call void @llvm.lifetime.start.p0(i64 4, ptr %8) #4
  %23 = load ptr, ptr %4, align 8, !tbaa !14
  %24 = getelementptr inbounds nuw %class.btVector3, ptr %23, i32 0, i32 0
  %25 = getelementptr inbounds [4 x float], ptr %24, i64 0, i64 2
  %26 = load float, ptr %25, align 4, !tbaa !12
  %27 = load ptr, ptr %5, align 8, !tbaa !16
  %28 = load float, ptr %27, align 4, !tbaa !12
  %29 = fmul float %26, %28
  store float %29, ptr %8, align 4, !tbaa !12
  call void @_ZN9btVector3C2ERKfS1_S1_(ptr noundef nonnull align 4 dereferenceable(16) %3, ptr noundef nonnull align 4 dereferenceable(4) %6, ptr noundef nonnull align 4 dereferenceable(4) %7, ptr noundef nonnull align 4 dereferenceable(4) %8)
  call void @llvm.lifetime.end.p0(i64 4, ptr %8) #4
  call void @llvm.lifetime.end.p0(i64 4, ptr %7) #4
  call void @llvm.lifetime.end.p0(i64 4, ptr %6) #4
  %30 = getelementptr inbounds nuw %class.btVector3, ptr %3, i32 0, i32 0
  %31 = load { <2 x float>, <2 x float> }, ptr %30, align 4
  ret { <2 x float>, <2 x float> } %31
}

; Function Attrs: inlinehint mustprogress uwtable
define linkonce_odr dso_local { <2 x float>, <2 x float> } @_ZplRK9btVector3S1_(ptr noundef nonnull align 4 dereferenceable(16) %0, ptr noundef nonnull align 4 dereferenceable(16) %1) #8 comdat {
  %3 = alloca %class.btVector3, align 4
  %4 = alloca ptr, align 8
  %5 = alloca ptr, align 8
  %6 = alloca float, align 4
  %7 = alloca float, align 4
  %8 = alloca float, align 4
  store ptr %0, ptr %4, align 8, !tbaa !14
  store ptr %1, ptr %5, align 8, !tbaa !14
  call void @llvm.lifetime.start.p0(i64 4, ptr %6) #4
  %9 = load ptr, ptr %4, align 8, !tbaa !14
  %10 = getelementptr inbounds nuw %class.btVector3, ptr %9, i32 0, i32 0
  %11 = getelementptr inbounds [4 x float], ptr %10, i64 0, i64 0
  %12 = load float, ptr %11, align 4, !tbaa !12
  %13 = load ptr, ptr %5, align 8, !tbaa !14
  %14 = getelementptr inbounds nuw %class.btVector3, ptr %13, i32 0, i32 0
  %15 = getelementptr inbounds [4 x float], ptr %14, i64 0, i64 0
  %16 = load float, ptr %15, align 4, !tbaa !12
  %17 = fadd float %12, %16
  store float %17, ptr %6, align 4, !tbaa !12
  call void @llvm.lifetime.start.p0(i64 4, ptr %7) #4
  %18 = load ptr, ptr %4, align 8, !tbaa !14
  %19 = getelementptr inbounds nuw %class.btVector3, ptr %18, i32 0, i32 0
  %20 = getelementptr inbounds [4 x float], ptr %19, i64 0, i64 1
  %21 = load float, ptr %20, align 4, !tbaa !12
  %22 = load ptr, ptr %5, align 8, !tbaa !14
  %23 = getelementptr inbounds nuw %class.btVector3, ptr %22, i32 0, i32 0
  %24 = getelementptr inbounds [4 x float], ptr %23, i64 0, i64 1
  %25 = load float, ptr %24, align 4, !tbaa !12
  %26 = fadd float %21, %25
  store float %26, ptr %7, align 4, !tbaa !12
  call void @llvm.lifetime.start.p0(i64 4, ptr %8) #4
  %27 = load ptr, ptr %4, align 8, !tbaa !14
  %28 = getelementptr inbounds nuw %class.btVector3, ptr %27, i32 0, i32 0
  %29 = getelementptr inbounds [4 x float], ptr %28, i64 0, i64 2
  %30 = load float, ptr %29, align 4, !tbaa !12
  %31 = load ptr, ptr %5, align 8, !tbaa !14
  %32 = getelementptr inbounds nuw %class.btVector3, ptr %31, i32 0, i32 0
  %33 = getelementptr inbounds [4 x float], ptr %32, i64 0, i64 2
  %34 = load float, ptr %33, align 4, !tbaa !12
  %35 = fadd float %30, %34
  store float %35, ptr %8, align 4, !tbaa !12
  call void @_ZN9btVector3C2ERKfS1_S1_(ptr noundef nonnull align 4 dereferenceable(16) %3, ptr noundef nonnull align 4 dereferenceable(4) %6, ptr noundef nonnull align 4 dereferenceable(4) %7, ptr noundef nonnull align 4 dereferenceable(4) %8)
  call void @llvm.lifetime.end.p0(i64 4, ptr %8) #4
  call void @llvm.lifetime.end.p0(i64 4, ptr %7) #4
  call void @llvm.lifetime.end.p0(i64 4, ptr %6) #4
  %36 = getelementptr inbounds nuw %class.btVector3, ptr %3, i32 0, i32 0
  %37 = load { <2 x float>, <2 x float> }, ptr %36, align 4
  ret { <2 x float>, <2 x float> } %37
}

; Function Attrs: inlinehint mustprogress uwtable
define linkonce_odr dso_local { <2 x float>, <2 x float> } @_ZmlRKfRK9btVector3(ptr noundef nonnull align 4 dereferenceable(4) %0, ptr noundef nonnull align 4 dereferenceable(16) %1) #13 comdat {
  %3 = alloca %class.btVector3, align 4
  %4 = alloca ptr, align 8
  %5 = alloca ptr, align 8
  store ptr %0, ptr %4, align 8, !tbaa !16
  store ptr %1, ptr %5, align 8, !tbaa !14
  %6 = load ptr, ptr %5, align 8, !tbaa !14
  %7 = load ptr, ptr %4, align 8, !tbaa !16
  %8 = call { <2 x float>, <2 x float> } @_ZmlRK9btVector3RKf(ptr noundef nonnull align 4 dereferenceable(16) %6, ptr noundef nonnull align 4 dereferenceable(4) %7)
  %9 = getelementptr inbounds nuw %class.btVector3, ptr %3, i32 0, i32 0
  %10 = getelementptr inbounds nuw { <2 x float>, <2 x float> }, ptr %9, i32 0, i32 0
  %11 = extractvalue { <2 x float>, <2 x float> } %8, 0
  store <2 x float> %11, ptr %10, align 4
  %12 = getelementptr inbounds nuw { <2 x float>, <2 x float> }, ptr %9, i32 0, i32 1
  %13 = extractvalue { <2 x float>, <2 x float> } %8, 1
  store <2 x float> %13, ptr %12, align 4
  %14 = getelementptr inbounds nuw %class.btVector3, ptr %3, i32 0, i32 0
  %15 = load { <2 x float>, <2 x float> }, ptr %14, align 4
  ret { <2 x float>, <2 x float> } %15
}

; Function Attrs: inlinehint mustprogress nounwind uwtable
define linkonce_odr dso_local noundef nonnull align 4 dereferenceable(16) ptr @_ZN20btAlignedObjectArrayI9btVector3EixEi(ptr noundef nonnull align 8 dereferenceable(25) %0, i32 noundef %1) #6 comdat align 2 {
  %3 = alloca ptr, align 8
  %4 = alloca i32, align 4
  store ptr %0, ptr %3, align 8, !tbaa !81
  store i32 %1, ptr %4, align 4, !tbaa !9
  %5 = load ptr, ptr %3, align 8
  %6 = getelementptr inbounds nuw %class.btAlignedObjectArray.2, ptr %5, i32 0, i32 4
  %7 = load ptr, ptr %6, align 8, !tbaa !160
  %8 = load i32, ptr %4, align 4, !tbaa !9
  %9 = sext i32 %8 to i64
  %10 = getelementptr inbounds %class.btVector3, ptr %7, i64 %9
  ret ptr %10
}

; Function Attrs: inlinehint mustprogress nounwind uwtable
define linkonce_odr dso_local noundef i32 @_ZNK20btAlignedObjectArrayI9btVector3E4sizeEv(ptr noundef nonnull align 8 dereferenceable(25) %0) #6 comdat align 2 {
  %2 = alloca ptr, align 8
  store ptr %0, ptr %2, align 8, !tbaa !81
  %3 = load ptr, ptr %2, align 8
  %4 = getelementptr inbounds nuw %class.btAlignedObjectArray.2, ptr %3, i32 0, i32 1
  %5 = load i32, ptr %4, align 4, !tbaa !159
  ret i32 %5
}

; Function Attrs: mustprogress uwtable
define dso_local void @_ZN22btDeformableBodySolver12updateEnergyEf(ptr noundef nonnull align 8 dereferenceable(609) %0, float noundef %1) #9 align 2 {
  %3 = alloca ptr, align 8
  %4 = alloca float, align 4
  %5 = alloca i32, align 4
  %6 = alloca %class.btVector3, align 4
  %7 = alloca %class.btVector3, align 4
  store ptr %0, ptr %3, align 8, !tbaa !58
  store float %1, ptr %4, align 4, !tbaa !12
  %8 = load ptr, ptr %3, align 8
  call void @llvm.lifetime.start.p0(i64 4, ptr %5) #4
  store i32 0, ptr %5, align 4, !tbaa !9
  br label %9

9:                                                ; preds = %37, %2
  %10 = load i32, ptr %5, align 4, !tbaa !9
  %11 = getelementptr inbounds nuw %class.btDeformableBodySolver, ptr %8, i32 0, i32 2
  %12 = call noundef i32 @_ZNK20btAlignedObjectArrayI9btVector3E4sizeEv(ptr noundef nonnull align 8 dereferenceable(25) %11)
  %13 = icmp slt i32 %10, %12
  br i1 %13, label %15, label %14

14:                                               ; preds = %9
  call void @llvm.lifetime.end.p0(i64 4, ptr %5) #4
  br label %40

15:                                               ; preds = %9
  call void @llvm.lifetime.start.p0(i64 16, ptr %6) #4
  %16 = getelementptr inbounds nuw %class.btDeformableBodySolver, ptr %8, i32 0, i32 3
  %17 = load i32, ptr %5, align 4, !tbaa !9
  %18 = call noundef nonnull align 4 dereferenceable(16) ptr @_ZN20btAlignedObjectArrayI9btVector3EixEi(ptr noundef nonnull align 8 dereferenceable(25) %16, i32 noundef %17)
  call void @llvm.lifetime.start.p0(i64 16, ptr %7) #4
  %19 = getelementptr inbounds nuw %class.btDeformableBodySolver, ptr %8, i32 0, i32 4
  %20 = load i32, ptr %5, align 4, !tbaa !9
  %21 = call noundef nonnull align 4 dereferenceable(16) ptr @_ZN20btAlignedObjectArrayI9btVector3EixEi(ptr noundef nonnull align 8 dereferenceable(25) %19, i32 noundef %20)
  %22 = call { <2 x float>, <2 x float> } @_ZmlRKfRK9btVector3(ptr noundef nonnull align 4 dereferenceable(4) %4, ptr noundef nonnull align 4 dereferenceable(16) %21)
  %23 = getelementptr inbounds nuw %class.btVector3, ptr %7, i32 0, i32 0
  %24 = getelementptr inbounds nuw { <2 x float>, <2 x float> }, ptr %23, i32 0, i32 0
  %25 = extractvalue { <2 x float>, <2 x float> } %22, 0
  store <2 x float> %25, ptr %24, align 4
  %26 = getelementptr inbounds nuw { <2 x float>, <2 x float> }, ptr %23, i32 0, i32 1
  %27 = extractvalue { <2 x float>, <2 x float> } %22, 1
  store <2 x float> %27, ptr %26, align 4
  %28 = call { <2 x float>, <2 x float> } @_ZplRK9btVector3S1_(ptr noundef nonnull align 4 dereferenceable(16) %18, ptr noundef nonnull align 4 dereferenceable(16) %7)
  %29 = getelementptr inbounds nuw %class.btVector3, ptr %6, i32 0, i32 0
  %30 = getelementptr inbounds nuw { <2 x float>, <2 x float> }, ptr %29, i32 0, i32 0
  %31 = extractvalue { <2 x float>, <2 x float> } %28, 0
  store <2 x float> %31, ptr %30, align 4
  %32 = getelementptr inbounds nuw { <2 x float>, <2 x float> }, ptr %29, i32 0, i32 1
  %33 = extractvalue { <2 x float>, <2 x float> } %28, 1
  store <2 x float> %33, ptr %32, align 4
  %34 = getelementptr inbounds nuw %class.btDeformableBodySolver, ptr %8, i32 0, i32 2
  %35 = load i32, ptr %5, align 4, !tbaa !9
  %36 = call noundef nonnull align 4 dereferenceable(16) ptr @_ZN20btAlignedObjectArrayI9btVector3EixEi(ptr noundef nonnull align 8 dereferenceable(25) %34, i32 noundef %35)
  call void @llvm.memcpy.p0.p0.i64(ptr align 4 %36, ptr align 4 %6, i64 16, i1 false), !tbaa.struct !131
  call void @llvm.lifetime.end.p0(i64 16, ptr %7) #4
  call void @llvm.lifetime.end.p0(i64 16, ptr %6) #4
  br label %37

37:                                               ; preds = %15
  %38 = load i32, ptr %5, align 4, !tbaa !9
  %39 = add nsw i32 %38, 1
  store i32 %39, ptr %5, align 4, !tbaa !9
  br label %9, !llvm.loop !265

40:                                               ; preds = %14
  call void @_ZN22btDeformableBodySolver11updateStateEv(ptr noundef nonnull align 8 dereferenceable(609) %8)
  ret void
}