; Function Attrs: mustprogress uwtable
define dso_local void @_ZN22btDeformableBodySolver12updateEnergyEf(ptr noundef nonnull readonly align 8 captures(none) dereferenceable(609) %0, float noundef %1) local_unnamed_addr #7 align 2 {
  %3 = getelementptr inbounds nuw i8, ptr %0, i64 28
  %4 = load i32, ptr %3, align 4, !tbaa !30
  %5 = icmp sgt i32 %4, 0
  br i1 %5, label %.lr.ph, label %._crit_edge

.lr.ph:                                           ; preds = %2
  %6 = getelementptr inbounds nuw i8, ptr %0, i64 72
  %7 = getelementptr inbounds nuw i8, ptr %0, i64 104
  %8 = getelementptr inbounds nuw i8, ptr %0, i64 40
  br label %9

._crit_edge:                                      ; preds = %9, %2
  tail call void @_ZN22btDeformableBodySolver11updateStateEv(ptr noundef nonnull align 8 dereferenceable(609) %0)
  ret void

9:                                                ; preds = %.lr.ph, %9
  %indvars.iv = phi i64 [ 0, %.lr.ph ], [ %indvars.iv.next, %9 ]
  %10 = load ptr, ptr %6, align 8, !tbaa !29
  %11 = getelementptr inbounds nuw %class.btVector3, ptr %10, i64 %indvars.iv
  %12 = load ptr, ptr %7, align 8, !tbaa !29
  %13 = getelementptr inbounds nuw %class.btVector3, ptr %12, i64 %indvars.iv
  %14 = load float, ptr %13, align 4, !tbaa !45
  %15 = fmul float %1, %14
  %16 = getelementptr inbounds nuw i8, ptr %13, i64 4
  %17 = load float, ptr %16, align 4, !tbaa !45
  %18 = fmul float %1, %17
  %19 = getelementptr inbounds nuw i8, ptr %13, i64 8
  %20 = load float, ptr %19, align 4, !tbaa !45
  %21 = fmul float %1, %20
  %22 = load float, ptr %11, align 4, !tbaa !45
  %23 = fadd float %15, %22
  %24 = getelementptr inbounds nuw i8, ptr %11, i64 4
  %25 = load float, ptr %24, align 4, !tbaa !45
  %26 = fadd float %18, %25
  %27 = getelementptr inbounds nuw i8, ptr %11, i64 8
  %28 = load float, ptr %27, align 4, !tbaa !45
  %29 = fadd float %21, %28
  %.sroa.0.0.vec.insert.i = insertelement <2 x float> poison, float %23, i64 0
  %.sroa.0.4.vec.insert.i = insertelement <2 x float> %.sroa.0.0.vec.insert.i, float %26, i64 1
  %.sroa.3.12.vec.insert.i = insertelement <2 x float> <float poison, float 0.000000e+00>, float %29, i64 0
  %30 = load ptr, ptr %8, align 8, !tbaa !29
  %31 = getelementptr inbounds nuw %class.btVector3, ptr %30, i64 %indvars.iv
  store <2 x float> %.sroa.0.4.vec.insert.i, ptr %31, align 4
  %.sroa.4.0..sroa_idx = getelementptr inbounds nuw i8, ptr %31, i64 8
  store <2 x float> %.sroa.3.12.vec.insert.i, ptr %.sroa.4.0..sroa_idx, align 4, !tbaa !41
  %indvars.iv.next = add nuw nsw i64 %indvars.iv, 1
  %32 = load i32, ptr %3, align 4, !tbaa !30
  %33 = sext i32 %32 to i64
  %34 = icmp slt i64 %indvars.iv.next, %33
  br i1 %34, label %9, label %._crit_edge, !llvm.loop !169
}